#include <math.h>
#include <stdio.h>
#include <stdlib.h>
#include <string.h>

void main()
{
	char a[100]={0},b[100]={0};
	int i,j,ya,yb,num=0,count=0;
	
    
		scanf("%s",a);
		scanf("%s",&b);
    ya=strlen(a);
	yb=strlen(b);

	if(ya==yb)
	{
	
	 for(i=0;i<ya;i++)
	 {
		 
		 for(j=0;j<yb;j++)
		 {
			 if(a[i]==b[j])
			 {
				 count=1;

			     break;
			 }
			 
		 }
		 num=num+count;
	 }
	 if(num==ya)
		 printf("YES");
		 else printf("NO");
	}
	else
		printf("NO");
}

		 